target datalayout = "e-m:e-p270:32:32-p271:32:32-p272:64:64-i64:64-i128:128-f80:128-n8:16:32:64-S128"
target triple = "x86_64-pc-linux-gnu"

%"class.std::__cxx11::basic_string" = type { %"struct.std::__cxx11::basic_string<char>::_Alloc_hider", i64, %union.anon }
%"struct.std::__cxx11::basic_string<char>::_Alloc_hider" = type { ptr }
%union.anon = type { i64, [8 x i8] }
%"class.rocksdb::Slice" = type { ptr, i64 }

; Function Attrs: mustprogress nounwind uwtable
define available_externally noundef ptr @_ZNKSt7__cxx1112basic_stringIcSt11char_traitsIcESaIcEE7_M_dataEv(ptr noundef nonnull align 8 dereferenceable(32) %0) #3 align 2 {
  %2 = alloca ptr, align 8
  store ptr %0, ptr %2, align 8, !tbaa !31
  %3 = load ptr, ptr %2, align 8
  %4 = getelementptr inbounds nuw %"class.std::__cxx11::basic_string", ptr %3, i32 0, i32 0
  %5 = getelementptr inbounds nuw %"struct.std::__cxx11::basic_string<char>::_Alloc_hider", ptr %4, i32 0, i32 0
  %6 = load ptr, ptr %5, align 8, !tbaa !135
  ret ptr %6
}

; Function Attrs: mustprogress uwtable
define available_externally void @_ZNSt7__cxx1112basic_stringIcSt11char_traitsIcESaIcEE6resizeEm(ptr noundef nonnull align 8 dereferenceable(32) %0, i64 noundef %1) #4 align 2 {
  %3 = alloca ptr, align 8
  %4 = alloca i64, align 8
  store ptr %0, ptr %3, align 8, !tbaa !31
  store i64 %1, ptr %4, align 8, !tbaa !4
  %5 = load ptr, ptr %3, align 8
  %6 = load i64, ptr %4, align 8, !tbaa !4
  call void @_ZNSt7__cxx1112basic_stringIcSt11char_traitsIcESaIcEE6resizeEmc(ptr noundef nonnull align 8 dereferenceable(32) %5, i64 noundef %6, i8 noundef signext 0)
  ret void
}

; Function Attrs: mustprogress nounwind uwtable
define linkonce_odr noundef signext i8 @_ZNK7rocksdb5SliceixEm(ptr noundef nonnull align 8 dereferenceable(16) %0, i64 noundef %1) #3 comdat align 2 {
  %3 = alloca ptr, align 8
  %4 = alloca i64, align 8
  store ptr %0, ptr %3, align 8, !tbaa !13
  store i64 %1, ptr %4, align 8, !tbaa !4
  %5 = load ptr, ptr %3, align 8
  %6 = getelementptr inbounds nuw %"class.rocksdb::Slice", ptr %5, i32 0, i32 0
  %7 = load ptr, ptr %6, align 8, !tbaa !15
  %8 = load i64, ptr %4, align 8, !tbaa !4
  %9 = getelementptr inbounds nuw i8, ptr %7, i64 %8
  %10 = load i8, ptr %9, align 1, !tbaa !86
  ret i8 %10
}

; Function Attrs: mustprogress nounwind uwtable
define available_externally noundef nonnull align 1 dereferenceable(1) ptr @_ZNSt7__cxx1112basic_stringIcSt11char_traitsIcESaIcEEixEm(ptr noundef nonnull align 8 dereferenceable(32) %0, i64 noundef %1) #3 align 2 {
  %3 = alloca ptr, align 8
  %4 = alloca i64, align 8
  store ptr %0, ptr %3, align 8, !tbaa !31
  store i64 %1, ptr %4, align 8, !tbaa !4
  %5 = load ptr, ptr %3, align 8
  br label %6

6:                                                ; preds = %2
  br label %7

7:                                                ; preds = %6
  %8 = call noundef ptr @_ZNKSt7__cxx1112basic_stringIcSt11char_traitsIcESaIcEE7_M_dataEv(ptr noundef nonnull align 8 dereferenceable(32) %5)
  %9 = load i64, ptr %4, align 8, !tbaa !4
  %10 = getelementptr inbounds nuw i8, ptr %8, i64 %9
  ret ptr %10
}

; Function Attrs: inlinehint mustprogress nounwind uwtable
define linkonce_odr noundef nonnull align 8 dereferenceable(8) ptr @_ZSt3minImERKT_S2_S2_(ptr noundef nonnull align 8 dereferenceable(8) %0, ptr noundef nonnull align 8 dereferenceable(8) %1) #1 comdat {
  %3 = alloca ptr, align 8
  %4 = alloca ptr, align 8
  %5 = alloca ptr, align 8
  store ptr %0, ptr %4, align 8, !tbaa !29
  store ptr %1, ptr %5, align 8, !tbaa !29
  %6 = load ptr, ptr %5, align 8, !tbaa !29
  %7 = load i64, ptr %6, align 8, !tbaa !4
  %8 = load ptr, ptr %4, align 8, !tbaa !29
  %9 = load i64, ptr %8, align 8, !tbaa !4
  %10 = icmp ult i64 %7, %9
  br i1 %10, label %11, label %13

11:                                               ; preds = %2
  %12 = load ptr, ptr %5, align 8, !tbaa !29
  store ptr %12, ptr %3, align 8
  br label %15

13:                                               ; preds = %2
  %14 = load ptr, ptr %4, align 8, !tbaa !29
  store ptr %14, ptr %3, align 8
  br label %15

15:                                               ; preds = %13, %11
  %16 = load ptr, ptr %3, align 8
  ret ptr %16
}

; Function Attrs: mustprogress nounwind uwtable
define linkonce_odr noundef i64 @_ZNK7rocksdb5Slice4sizeEv(ptr noundef nonnull align 8 dereferenceable(16) %0) #3 comdat align 2 {
  %2 = alloca ptr, align 8
  store ptr %0, ptr %2, align 8, !tbaa !13
  %3 = load ptr, ptr %2, align 8
  %4 = getelementptr inbounds nuw %"class.rocksdb::Slice", ptr %3, i32 0, i32 1
  %5 = load i64, ptr %4, align 8, !tbaa !17
  ret i64 %5
}

; Function Attrs: mustprogress nounwind uwtable
define available_externally noundef i64 @_ZNKSt7__cxx1112basic_stringIcSt11char_traitsIcESaIcEE4sizeEv(ptr noundef nonnull align 8 dereferenceable(32) %0) #3 align 2 {
  %2 = alloca ptr, align 8
  store ptr %0, ptr %2, align 8, !tbaa !31
  %3 = load ptr, ptr %2, align 8
  %4 = getelementptr inbounds nuw %"class.std::__cxx11::basic_string", ptr %3, i32 0, i32 1
  %5 = load i64, ptr %4, align 8, !tbaa !140
  ret i64 %5
}

; Function Attrs: mustprogress uwtable
define internal void @_ZNK7rocksdb12_GLOBAL__N_122BytewiseComparatorImpl21FindShortestSeparatorEPNSt7__cxx1112basic_stringIcSt11char_traitsIcESaIcEEERKNS_5SliceE(ptr noundef nonnull align 8 dereferenceable(48) %0, ptr noundef %1, ptr noundef nonnull align 8 dereferenceable(16) %2) unnamed_addr #4 align 2 {
  %4 = alloca ptr, align 8
  %5 = alloca ptr, align 8
  %6 = alloca ptr, align 8
  %7 = alloca i64, align 8
  %8 = alloca i64, align 8
  %9 = alloca i64, align 8
  %10 = alloca i64, align 8
  %11 = alloca i8, align 1
  %12 = alloca i8, align 1
  %13 = alloca i32, align 4
  store ptr %0, ptr %4, align 8, !tbaa !19
  store ptr %1, ptr %5, align 8, !tbaa !31
  store ptr %2, ptr %6, align 8, !tbaa !13
  call void @llvm.lifetime.start.p0(i64 8, ptr %7) #5
  call void @llvm.lifetime.start.p0(i64 8, ptr %8) #5
  %14 = load ptr, ptr %5, align 8, !tbaa !31
  %15 = call noundef i64 @_ZNKSt7__cxx1112basic_stringIcSt11char_traitsIcESaIcEE4sizeEv(ptr noundef nonnull align 8 dereferenceable(32) %14) #5
  store i64 %15, ptr %8, align 8, !tbaa !4
  call void @llvm.lifetime.start.p0(i64 8, ptr %9) #5
  %16 = load ptr, ptr %6, align 8, !tbaa !13
  %17 = call noundef i64 @_ZNK7rocksdb5Slice4sizeEv(ptr noundef nonnull align 8 dereferenceable(16) %16)
  store i64 %17, ptr %9, align 8, !tbaa !4
  %18 = call noundef nonnull align 8 dereferenceable(8) ptr @_ZSt3minImERKT_S2_S2_(ptr noundef nonnull align 8 dereferenceable(8) %8, ptr noundef nonnull align 8 dereferenceable(8) %9)
  %19 = load i64, ptr %18, align 8, !tbaa !4
  call void @llvm.lifetime.end.p0(i64 8, ptr %9) #5
  call void @llvm.lifetime.end.p0(i64 8, ptr %8) #5
  store i64 %19, ptr %7, align 8, !tbaa !4
  call void @llvm.lifetime.start.p0(i64 8, ptr %10) #5
  store i64 0, ptr %10, align 8, !tbaa !4
  br label %20

20:                                               ; preds = %37, %3
  %21 = load i64, ptr %10, align 8, !tbaa !4
  %22 = load i64, ptr %7, align 8, !tbaa !4
  %23 = icmp ult i64 %21, %22
  br i1 %23, label %24, label %35

24:                                               ; preds = %20
  %25 = load ptr, ptr %5, align 8, !tbaa !31
  %26 = load i64, ptr %10, align 8, !tbaa !4
  %27 = call noundef nonnull align 1 dereferenceable(1) ptr @_ZNSt7__cxx1112basic_stringIcSt11char_traitsIcESaIcEEixEm(ptr noundef nonnull align 8 dereferenceable(32) %25, i64 noundef %26)
  %28 = load i8, ptr %27, align 1, !tbaa !86
  %29 = sext i8 %28 to i32
  %30 = load ptr, ptr %6, align 8, !tbaa !13
  %31 = load i64, ptr %10, align 8, !tbaa !4
  %32 = call noundef signext i8 @_ZNK7rocksdb5SliceixEm(ptr noundef nonnull align 8 dereferenceable(16) %30, i64 noundef %31)
  %33 = sext i8 %32 to i32
  %34 = icmp eq i32 %29, %33
  br label %35

35:                                               ; preds = %24, %20
  %36 = phi i1 [ false, %20 ], [ %34, %24 ]
  br i1 %36, label %37, label %40

37:                                               ; preds = %35
  %38 = load i64, ptr %10, align 8, !tbaa !4
  %39 = add i64 %38, 1
  store i64 %39, ptr %10, align 8, !tbaa !4
  br label %20, !llvm.loop !104

40:                                               ; preds = %35
  %41 = load i64, ptr %10, align 8, !tbaa !4
  %42 = load i64, ptr %7, align 8, !tbaa !4
  %43 = icmp uge i64 %41, %42
  br i1 %43, label %44, label %45

44:                                               ; preds = %40
  br label %113

45:                                               ; preds = %40
  call void @llvm.lifetime.start.p0(i64 1, ptr %11) #5
  %46 = load ptr, ptr %5, align 8, !tbaa !31
  %47 = load i64, ptr %10, align 8, !tbaa !4
  %48 = call noundef nonnull align 1 dereferenceable(1) ptr @_ZNSt7__cxx1112basic_stringIcSt11char_traitsIcESaIcEEixEm(ptr noundef nonnull align 8 dereferenceable(32) %46, i64 noundef %47)
  %49 = load i8, ptr %48, align 1, !tbaa !86
  store i8 %49, ptr %11, align 1, !tbaa !86
  call void @llvm.lifetime.start.p0(i64 1, ptr %12) #5
  %50 = load ptr, ptr %6, align 8, !tbaa !13
  %51 = load i64, ptr %10, align 8, !tbaa !4
  %52 = call noundef signext i8 @_ZNK7rocksdb5SliceixEm(ptr noundef nonnull align 8 dereferenceable(16) %50, i64 noundef %51)
  store i8 %52, ptr %12, align 1, !tbaa !86
  %53 = load i8, ptr %11, align 1, !tbaa !86
  %54 = zext i8 %53 to i32
  %55 = load i8, ptr %12, align 1, !tbaa !86
  %56 = zext i8 %55 to i32
  %57 = icmp sge i32 %54, %56
  br i1 %57, label %58, label %59

58:                                               ; preds = %45
  store i32 1, ptr %13, align 4
  br label %110

59:                                               ; preds = %45
  %60 = load i64, ptr %10, align 8, !tbaa !4
  %61 = load ptr, ptr %6, align 8, !tbaa !13
  %62 = call noundef i64 @_ZNK7rocksdb5Slice4sizeEv(ptr noundef nonnull align 8 dereferenceable(16) %61)
  %63 = sub i64 %62, 1
  %64 = icmp ult i64 %60, %63
  br i1 %64, label %72, label %65

65:                                               ; preds = %59
  %66 = load i8, ptr %11, align 1, !tbaa !86
  %67 = zext i8 %66 to i32
  %68 = add nsw i32 %67, 1
  %69 = load i8, ptr %12, align 1, !tbaa !86
  %70 = zext i8 %69 to i32
  %71 = icmp slt i32 %68, %70
  br i1 %71, label %72, label %81

72:                                               ; preds = %65, %59
  %73 = load ptr, ptr %5, align 8, !tbaa !31
  %74 = load i64, ptr %10, align 8, !tbaa !4
  %75 = call noundef nonnull align 1 dereferenceable(1) ptr @_ZNSt7__cxx1112basic_stringIcSt11char_traitsIcESaIcEEixEm(ptr noundef nonnull align 8 dereferenceable(32) %73, i64 noundef %74)
  %76 = load i8, ptr %75, align 1, !tbaa !86
  %77 = add i8 %76, 1
  store i8 %77, ptr %75, align 1, !tbaa !86
  %78 = load ptr, ptr %5, align 8, !tbaa !31
  %79 = load i64, ptr %10, align 8, !tbaa !4
  %80 = add i64 %79, 1
  call void @_ZNSt7__cxx1112basic_stringIcSt11char_traitsIcESaIcEE6resizeEm(ptr noundef nonnull align 8 dereferenceable(32) %78, i64 noundef %80)
  br label %109

81:                                               ; preds = %65
  %82 = load i64, ptr %10, align 8, !tbaa !4
  %83 = add i64 %82, 1
  store i64 %83, ptr %10, align 8, !tbaa !4
  br label %84

84:                                               ; preds = %105, %81
  %85 = load i64, ptr %10, align 8, !tbaa !4
  %86 = load ptr, ptr %5, align 8, !tbaa !31
  %87 = call noundef i64 @_ZNKSt7__cxx1112basic_stringIcSt11char_traitsIcESaIcEE4sizeEv(ptr noundef nonnull align 8 dereferenceable(32) %86) #5
  %88 = icmp ult i64 %85, %87
  br i1 %88, label %89, label %108

89:                                               ; preds = %84
  %90 = load ptr, ptr %5, align 8, !tbaa !31
  %91 = load i64, ptr %10, align 8, !tbaa !4
  %92 = call noundef nonnull align 1 dereferenceable(1) ptr @_ZNSt7__cxx1112basic_stringIcSt11char_traitsIcESaIcEEixEm(ptr noundef nonnull align 8 dereferenceable(32) %90, i64 noundef %91)
  %93 = load i8, ptr %92, align 1, !tbaa !86
  %94 = zext i8 %93 to i32
  %95 = icmp slt i32 %94, 255
  br i1 %95, label %96, label %105

96:                                               ; preds = %89
  %97 = load ptr, ptr %5, align 8, !tbaa !31
  %98 = load i64, ptr %10, align 8, !tbaa !4
  %99 = call noundef nonnull align 1 dereferenceable(1) ptr @_ZNSt7__cxx1112basic_stringIcSt11char_traitsIcESaIcEEixEm(ptr noundef nonnull align 8 dereferenceable(32) %97, i64 noundef %98)
  %100 = load i8, ptr %99, align 1, !tbaa !86
  %101 = add i8 %100, 1
  store i8 %101, ptr %99, align 1, !tbaa !86
  %102 = load ptr, ptr %5, align 8, !tbaa !31
  %103 = load i64, ptr %10, align 8, !tbaa !4
  %104 = add i64 %103, 1
  call void @_ZNSt7__cxx1112basic_stringIcSt11char_traitsIcESaIcEE6resizeEm(ptr noundef nonnull align 8 dereferenceable(32) %102, i64 noundef %104)
  br label %108

105:                                              ; preds = %89
  %106 = load i64, ptr %10, align 8, !tbaa !4
  %107 = add i64 %106, 1
  store i64 %107, ptr %10, align 8, !tbaa !4
  br label %84, !llvm.loop !106

108:                                              ; preds = %96, %84
  br label %109

109:                                              ; preds = %108, %72
  store i32 0, ptr %13, align 4
  br label %110

110:                                              ; preds = %109, %58
  call void @llvm.lifetime.end.p0(i64 1, ptr %12) #5
  call void @llvm.lifetime.end.p0(i64 1, ptr %11) #5
  %111 = load i32, ptr %13, align 4
  switch i32 %111, label %114 [
    i32 0, label %112
  ]

112:                                              ; preds = %110
  br label %113

113:                                              ; preds = %112, %44
  store i32 0, ptr %13, align 4
  br label %114

114:                                              ; preds = %113, %110
  call void @llvm.lifetime.end.p0(i64 8, ptr %10) #5
  call void @llvm.lifetime.end.p0(i64 8, ptr %7) #5
  %115 = load i32, ptr %13, align 4
  switch i32 %115, label %117 [
    i32 0, label %116
    i32 1, label %116
  ]

116:                                              ; preds = %114, %114
  ret void

117:                                              ; preds = %114
  unreachable
}