; Function Attrs: mustprogress uwtable
define internal void @_ZNK7rocksdb12_GLOBAL__N_122BytewiseComparatorImpl21FindShortestSeparatorEPNSt7__cxx1112basic_stringIcSt11char_traitsIcESaIcEEERKNS_5SliceE(ptr nonnull readnone align 8 captures(none) %0, ptr noundef %1, ptr noundef nonnull readonly align 8 captures(none) dereferenceable(16) %2) unnamed_addr #1 align 2 {
  %4 = getelementptr inbounds nuw i8, ptr %1, i64 8
  %5 = load i64, ptr %4, align 8, !tbaa !39
  %6 = getelementptr inbounds nuw i8, ptr %2, i64 8
  %7 = load i64, ptr %6, align 8, !tbaa !29
  %.sroa.speculated = tail call i64 @llvm.umin.i64(i64 %7, i64 %5)
  %.not = icmp eq i64 %.sroa.speculated, 0
  br i1 %.not, label %.critedge42, label %.lr.ph

.lr.ph:                                           ; preds = %3
  %8 = load ptr, ptr %1, align 8, !tbaa !42
  %9 = load ptr, ptr %2, align 8, !tbaa !32
  br label %10

10:                                               ; preds = %.lr.ph, %16
  %.03550 = phi i64 [ 0, %.lr.ph ], [ %17, %16 ]
  %11 = getelementptr inbounds nuw i8, ptr %8, i64 %.03550
  %12 = load i8, ptr %11, align 1, !tbaa !45
  %13 = getelementptr inbounds nuw i8, ptr %9, i64 %.03550
  %14 = load i8, ptr %13, align 1, !tbaa !45
  %15 = icmp eq i8 %12, %14
  br i1 %15, label %16, label %18

16:                                               ; preds = %10
  %17 = add nuw i64 %.03550, 1
  %exitcond.not = icmp eq i64 %17, %.sroa.speculated
  br i1 %exitcond.not, label %.critedge42, label %10, !llvm.loop !117

18:                                               ; preds = %10
  %19 = getelementptr inbounds nuw i8, ptr %8, i64 %.03550
  %.not38 = icmp ult i8 %12, %14
  br i1 %.not38, label %20, label %.critedge42

20:                                               ; preds = %18
  %21 = zext i8 %14 to i32
  %22 = zext i8 %12 to i32
  %23 = add i64 %7, -1
  %24 = icmp ult i64 %.03550, %23
  %25 = add nuw nsw i32 %22, 1
  %26 = icmp samesign ult i32 %25, %21
  %or.cond = select i1 %24, i1 true, i1 %26
  br i1 %or.cond, label %27, label %.preheader

27:                                               ; preds = %20
  %28 = add nuw i8 %12, 1
  store i8 %28, ptr %19, align 1, !tbaa !45
  %29 = add nuw i64 %.03550, 1
  br label %.critedge42.sink.split

.preheader:                                       ; preds = %20, %31
  %.1.in = phi i64 [ %.1, %31 ], [ %.03550, %20 ]
  %.1 = add nuw i64 %.1.in, 1
  %30 = icmp ult i64 %.1, %5
  br i1 %30, label %31, label %.critedge42

31:                                               ; preds = %.preheader
  %32 = getelementptr inbounds nuw i8, ptr %8, i64 %.1
  %33 = load i8, ptr %32, align 1, !tbaa !45
  %.not39 = icmp eq i8 %33, -1
  br i1 %.not39, label %.preheader, label %34, !llvm.loop !118

34:                                               ; preds = %31
  %35 = getelementptr inbounds nuw i8, ptr %8, i64 %.1
  %36 = add nuw i8 %33, 1
  store i8 %36, ptr %35, align 1, !tbaa !45
  %37 = add i64 %.1.in, 2
  br label %.critedge42.sink.split

.critedge42.sink.split:                           ; preds = %27, %34
  %.sink = phi i64 [ %37, %34 ], [ %29, %27 ]
  tail call void @_ZNSt7__cxx1112basic_stringIcSt11char_traitsIcESaIcEE6resizeEmc(ptr noundef nonnull align 8 dereferenceable(32) %1, i64 noundef %.sink, i8 noundef signext 0)
  br label %.critedge42

.critedge42:                                      ; preds = %16, %.preheader, %.critedge42.sink.split, %3, %18
  ret void
}